target datalayout = "e-m:e-p270:32:32-p271:32:32-p272:64:64-i64:64-i128:128-f80:128-n8:16:32:64-S128"
target triple = "x86_64-pc-linux-gnu"

%struct.BlockIdData = type { i16, i16 }
%struct.ItemPointerData = type { %struct.BlockIdData, i16 }
%struct.GinBtreeData = type { ptr, ptr, ptr, ptr, ptr, ptr, ptr, ptr, ptr, i8, ptr, i32, ptr, i8, i8, i16, i64, i8, %struct.ItemPointerData }
%struct.GinBtreeDataLeafInsertData = type { ptr, i32, i32 }

; Function Attrs: nounwind uwtable
define internal void @ginPrepareDataScan(ptr noundef %0, ptr noundef %1, i32 noundef %2) #0 {
  %4 = alloca ptr, align 8
  %5 = alloca ptr, align 8
  %6 = alloca i32, align 4
  store ptr %0, ptr %4, align 8
  store ptr %1, ptr %5, align 8
  store i32 %2, ptr %6, align 4
  %7 = load ptr, ptr %4, align 8
  call void @llvm.memset.p0.i64(ptr align 8 %7, i8 0, i64 128, i1 false)
  %8 = load ptr, ptr %5, align 8
  %9 = load ptr, ptr %4, align 8
  %10 = getelementptr inbounds nuw %struct.GinBtreeData, ptr %9, i32 0, i32 10
  store ptr %8, ptr %10, align 8
  %11 = load i32, ptr %6, align 4
  %12 = load ptr, ptr %4, align 8
  %13 = getelementptr inbounds nuw %struct.GinBtreeData, ptr %12, i32 0, i32 11
  store i32 %11, ptr %13, align 8
  %14 = load ptr, ptr %4, align 8
  %15 = getelementptr inbounds nuw %struct.GinBtreeData, ptr %14, i32 0, i32 0
  store ptr @dataLocateItem, ptr %15, align 8
  %16 = load ptr, ptr %4, align 8
  %17 = getelementptr inbounds nuw %struct.GinBtreeData, ptr %16, i32 0, i32 1
  store ptr @dataGetLeftMostPage, ptr %17, align 8
  %18 = load ptr, ptr %4, align 8
  %19 = getelementptr inbounds nuw %struct.GinBtreeData, ptr %18, i32 0, i32 2
  store ptr @dataIsMoveRight, ptr %19, align 8
  %20 = load ptr, ptr %4, align 8
  %21 = getelementptr inbounds nuw %struct.GinBtreeData, ptr %20, i32 0, i32 3
  store ptr null, ptr %21, align 8
  %22 = load ptr, ptr %4, align 8
  %23 = getelementptr inbounds nuw %struct.GinBtreeData, ptr %22, i32 0, i32 4
  store ptr @dataFindChildPtr, ptr %23, align 8
  %24 = load ptr, ptr %4, align 8
  %25 = getelementptr inbounds nuw %struct.GinBtreeData, ptr %24, i32 0, i32 5
  store ptr @dataBeginPlaceToPage, ptr %25, align 8
  %26 = load ptr, ptr %4, align 8
  %27 = getelementptr inbounds nuw %struct.GinBtreeData, ptr %26, i32 0, i32 6
  store ptr @dataExecPlaceToPage, ptr %27, align 8
  %28 = load ptr, ptr %4, align 8
  %29 = getelementptr inbounds nuw %struct.GinBtreeData, ptr %28, i32 0, i32 8
  store ptr @ginDataFillRoot, ptr %29, align 8
  %30 = load ptr, ptr %4, align 8
  %31 = getelementptr inbounds nuw %struct.GinBtreeData, ptr %30, i32 0, i32 7
  store ptr @dataPrepareDownlink, ptr %31, align 8
  %32 = load ptr, ptr %4, align 8
  %33 = getelementptr inbounds nuw %struct.GinBtreeData, ptr %32, i32 0, i32 9
  store i8 1, ptr %33, align 8
  %34 = load ptr, ptr %4, align 8
  %35 = getelementptr inbounds nuw %struct.GinBtreeData, ptr %34, i32 0, i32 13
  store i8 0, ptr %35, align 8
  %36 = load ptr, ptr %4, align 8
  %37 = getelementptr inbounds nuw %struct.GinBtreeData, ptr %36, i32 0, i32 14
  store i8 0, ptr %37, align 1
  ret void
}

; Function Attrs: nounwind uwtable
define dso_local void @ginInsertItemPointers(ptr noundef %0, i32 noundef %1, ptr noundef %2, i32 noundef %3, ptr noundef %4) #0 {
  %6 = alloca ptr, align 8
  %7 = alloca i32, align 4
  %8 = alloca ptr, align 8
  %9 = alloca i32, align 4
  %10 = alloca ptr, align 8
  %11 = alloca %struct.GinBtreeData, align 8
  %12 = alloca %struct.GinBtreeDataLeafInsertData, align 8
  %13 = alloca ptr, align 8
  store ptr %0, ptr %6, align 8
  store i32 %1, ptr %7, align 4
  store ptr %2, ptr %8, align 8
  store i32 %3, ptr %9, align 4
  store ptr %4, ptr %10, align 8
  call void @llvm.lifetime.start.p0(i64 128, ptr %11) #7
  call void @llvm.lifetime.start.p0(i64 16, ptr %12) #7
  call void @llvm.lifetime.start.p0(i64 8, ptr %13) #7
  %14 = load ptr, ptr %6, align 8
  %15 = load i32, ptr %7, align 4
  call void @ginPrepareDataScan(ptr noundef %11, ptr noundef %14, i32 noundef %15)
  %16 = load ptr, ptr %10, align 8
  %17 = icmp ne ptr %16, null
  %18 = getelementptr inbounds nuw %struct.GinBtreeData, ptr %11, i32 0, i32 14
  %19 = zext i1 %17 to i8
  store i8 %19, ptr %18, align 1
  %20 = load ptr, ptr %8, align 8
  %21 = getelementptr inbounds nuw %struct.GinBtreeDataLeafInsertData, ptr %12, i32 0, i32 0
  store ptr %20, ptr %21, align 8
  %22 = load i32, ptr %9, align 4
  %23 = getelementptr inbounds nuw %struct.GinBtreeDataLeafInsertData, ptr %12, i32 0, i32 1
  store i32 %22, ptr %23, align 8
  %24 = getelementptr inbounds nuw %struct.GinBtreeDataLeafInsertData, ptr %12, i32 0, i32 2
  store i32 0, ptr %24, align 4
  br label %25

25:                                               ; preds = %31, %5
  %26 = getelementptr inbounds nuw %struct.GinBtreeDataLeafInsertData, ptr %12, i32 0, i32 2
  %27 = load i32, ptr %26, align 4
  %28 = getelementptr inbounds nuw %struct.GinBtreeDataLeafInsertData, ptr %12, i32 0, i32 1
  %29 = load i32, ptr %28, align 8
  %30 = icmp ult i32 %27, %29
  br i1 %30, label %31, label %42

31:                                               ; preds = %25
  %32 = getelementptr inbounds nuw %struct.GinBtreeData, ptr %11, i32 0, i32 18
  %33 = getelementptr inbounds nuw %struct.GinBtreeDataLeafInsertData, ptr %12, i32 0, i32 0
  %34 = load ptr, ptr %33, align 8
  %35 = getelementptr inbounds nuw %struct.GinBtreeDataLeafInsertData, ptr %12, i32 0, i32 2
  %36 = load i32, ptr %35, align 4
  %37 = zext i32 %36 to i64
  %38 = getelementptr inbounds nuw %struct.ItemPointerData, ptr %34, i64 %37
  call void @llvm.memcpy.p0.p0.i64(ptr align 2 %32, ptr align 2 %38, i64 6, i1 false)
  %39 = call ptr @ginFindLeafPage(ptr noundef %11, i1 noundef zeroext false, i1 noundef zeroext true)
  store ptr %39, ptr %13, align 8
  %40 = load ptr, ptr %13, align 8
  %41 = load ptr, ptr %10, align 8
  call void @ginInsertValue(ptr noundef %11, ptr noundef %40, ptr noundef %12, ptr noundef %41)
  br label %25, !llvm.loop !15

42:                                               ; preds = %25
  call void @llvm.lifetime.end.p0(i64 8, ptr %13) #7
  call void @llvm.lifetime.end.p0(i64 16, ptr %12) #7
  call void @llvm.lifetime.end.p0(i64 128, ptr %11) #7
  ret void
}