; Function Attrs: nounwind uwtable
define dso_local void @ginInsertItemPointers(ptr noundef %0, i32 noundef %1, ptr noundef %2, i32 noundef %3, ptr noundef %4) local_unnamed_addr #0 {
  %6 = alloca %struct.GinBtreeData, align 8
  %7 = alloca %struct.GinBtreeDataLeafInsertData, align 8
  call void @llvm.lifetime.start.p0(i64 128, ptr nonnull %6) #11
  call void @llvm.lifetime.start.p0(i64 16, ptr nonnull %7) #11
  %8 = getelementptr inbounds nuw i8, ptr %6, i64 72
  call void @llvm.memset.p0.i64(ptr noundef nonnull align 8 dereferenceable(128) %8, i8 0, i64 56, i1 false)
  %9 = getelementptr inbounds nuw i8, ptr %6, i64 80
  store ptr %0, ptr %9, align 8
  %10 = getelementptr inbounds nuw i8, ptr %6, i64 88
  store i32 %1, ptr %10, align 8
  store ptr @dataLocateItem, ptr %6, align 8
  %11 = getelementptr inbounds nuw i8, ptr %6, i64 8
  store ptr @dataGetLeftMostPage, ptr %11, align 8
  %12 = getelementptr inbounds nuw i8, ptr %6, i64 16
  store ptr @dataIsMoveRight, ptr %12, align 8
  %13 = getelementptr inbounds nuw i8, ptr %6, i64 24
  store ptr null, ptr %13, align 8
  %14 = getelementptr inbounds nuw i8, ptr %6, i64 32
  store ptr @dataFindChildPtr, ptr %14, align 8
  %15 = getelementptr inbounds nuw i8, ptr %6, i64 40
  store ptr @dataBeginPlaceToPage, ptr %15, align 8
  %16 = getelementptr inbounds nuw i8, ptr %6, i64 48
  store ptr @dataExecPlaceToPage, ptr %16, align 8
  %17 = getelementptr inbounds nuw i8, ptr %6, i64 64
  store ptr @ginDataFillRoot, ptr %17, align 8
  %18 = getelementptr inbounds nuw i8, ptr %6, i64 56
  store ptr @dataPrepareDownlink, ptr %18, align 8
  store i8 1, ptr %8, align 8
  %19 = getelementptr inbounds nuw i8, ptr %6, i64 105
  %20 = icmp ne ptr %4, null
  %21 = zext i1 %20 to i8
  store i8 %21, ptr %19, align 1
  store ptr %2, ptr %7, align 8
  %22 = getelementptr inbounds nuw i8, ptr %7, i64 8
  store i32 %3, ptr %22, align 8
  %23 = getelementptr inbounds nuw i8, ptr %7, i64 12
  store i32 0, ptr %23, align 4
  %.not = icmp eq i32 %3, 0
  br i1 %.not, label %._crit_edge, label %.lr.ph

.lr.ph:                                           ; preds = %5
  %24 = getelementptr inbounds nuw i8, ptr %6, i64 122
  br label %25

25:                                               ; preds = %.lr.ph, %25
  %26 = phi i32 [ 0, %.lr.ph ], [ %31, %25 ]
  %27 = load ptr, ptr %7, align 8
  %28 = zext i32 %26 to i64
  %29 = getelementptr inbounds nuw %struct.ItemPointerData, ptr %27, i64 %28
  call void @llvm.memcpy.p0.p0.i64(ptr noundef nonnull align 2 dereferenceable(6) %24, ptr noundef nonnull align 2 dereferenceable(6) %29, i64 6, i1 false)
  %30 = call ptr @ginFindLeafPage(ptr noundef nonnull %6, i1 noundef zeroext false, i1 noundef zeroext true) #11
  call void @ginInsertValue(ptr noundef nonnull %6, ptr noundef %30, ptr noundef nonnull %7, ptr noundef %4) #11
  %31 = load i32, ptr %23, align 4
  %32 = load i32, ptr %22, align 8
  %33 = icmp ult i32 %31, %32
  br i1 %33, label %25, label %._crit_edge, !llvm.loop !12

._crit_edge:                                      ; preds = %25, %5
  call void @llvm.lifetime.end.p0(i64 16, ptr nonnull %7) #11
  call void @llvm.lifetime.end.p0(i64 128, ptr nonnull %6) #11
  ret void
}